target datalayout = "e-m:e-p270:32:32-p271:32:32-p272:64:64-i64:64-i128:128-f80:128-n8:16:32:64-S128"
target triple = "x86_64-pc-linux-gnu"

%struct.ltlNode_t = type { i32, ptr, ptr, ptr, ptr }

@.str.18 = private unnamed_addr constant [68 x i8] c"\0ASerious ERROR: attempting to create AIG node from a temporal node\0A\00", align 1
@.str.19 = private unnamed_addr constant [87 x i8] c"\0AAttempting to create circuit with missing AIG pointer in a TEMPORAL node: ABORTING!!\0A\00", align 1

; Function Attrs: inlinehint nounwind uwtable
define internal ptr @Aig_Not(ptr noundef %0) #3 {
  %2 = alloca ptr, align 8
  store ptr %0, ptr %2, align 8, !tbaa !68
  %3 = load ptr, ptr %2, align 8, !tbaa !68
  %4 = ptrtoint ptr %3 to i64
  %5 = xor i64 %4, 1
  %6 = inttoptr i64 %5 to ptr
  ret ptr %6
}

; Function Attrs: nounwind uwtable
define ptr @buildLogicFromLTLNode(ptr noundef %0, ptr noundef %1) #0 {
  %3 = alloca ptr, align 8
  %4 = alloca ptr, align 8
  %5 = alloca ptr, align 8
  %6 = alloca ptr, align 8
  %7 = alloca ptr, align 8
  %8 = alloca i32, align 4
  store ptr %0, ptr %4, align 8, !tbaa !59
  store ptr %1, ptr %5, align 8, !tbaa !7
  call void @llvm.lifetime.start.p0(i64 8, ptr %6) #9
  call void @llvm.lifetime.start.p0(i64 8, ptr %7) #9
  %9 = load ptr, ptr %5, align 8, !tbaa !7
  %10 = getelementptr inbounds nuw %struct.ltlNode_t, ptr %9, i32 0, i32 2
  %11 = load ptr, ptr %10, align 8, !tbaa !14
  %12 = icmp ne ptr %11, null
  br i1 %12, label %13, label %17

13:                                               ; preds = %2
  %14 = load ptr, ptr %5, align 8, !tbaa !7
  %15 = getelementptr inbounds nuw %struct.ltlNode_t, ptr %14, i32 0, i32 2
  %16 = load ptr, ptr %15, align 8, !tbaa !14
  store ptr %16, ptr %3, align 8
  store i32 1, ptr %8, align 4
  br label %78

17:                                               ; preds = %2
  %18 = load ptr, ptr %5, align 8, !tbaa !7
  %19 = getelementptr inbounds nuw %struct.ltlNode_t, ptr %18, i32 0, i32 0
  %20 = load i32, ptr %19, align 8, !tbaa !10
  switch i32 %20, label %76 [
    i32 0, label %21
    i32 1, label %41
    i32 2, label %61
    i32 4, label %74
    i32 5, label %74
    i32 6, label %74
    i32 7, label %74
  ]

21:                                               ; preds = %17
  %22 = load ptr, ptr %4, align 8, !tbaa !59
  %23 = load ptr, ptr %5, align 8, !tbaa !7
  %24 = getelementptr inbounds nuw %struct.ltlNode_t, ptr %23, i32 0, i32 3
  %25 = load ptr, ptr %24, align 8, !tbaa !16
  %26 = call ptr @buildLogicFromLTLNode(ptr noundef %22, ptr noundef %25)
  store ptr %26, ptr %6, align 8, !tbaa !68
  %27 = load ptr, ptr %4, align 8, !tbaa !59
  %28 = load ptr, ptr %5, align 8, !tbaa !7
  %29 = getelementptr inbounds nuw %struct.ltlNode_t, ptr %28, i32 0, i32 4
  %30 = load ptr, ptr %29, align 8, !tbaa !17
  %31 = call ptr @buildLogicFromLTLNode(ptr noundef %27, ptr noundef %30)
  store ptr %31, ptr %7, align 8, !tbaa !68
  %32 = load ptr, ptr %4, align 8, !tbaa !59
  %33 = load ptr, ptr %6, align 8, !tbaa !68
  %34 = load ptr, ptr %7, align 8, !tbaa !68
  %35 = call ptr @Aig_And(ptr noundef %32, ptr noundef %33, ptr noundef %34)
  %36 = load ptr, ptr %5, align 8, !tbaa !7
  %37 = getelementptr inbounds nuw %struct.ltlNode_t, ptr %36, i32 0, i32 2
  store ptr %35, ptr %37, align 8, !tbaa !14
  %38 = load ptr, ptr %5, align 8, !tbaa !7
  %39 = getelementptr inbounds nuw %struct.ltlNode_t, ptr %38, i32 0, i32 2
  %40 = load ptr, ptr %39, align 8, !tbaa !14
  store ptr %40, ptr %3, align 8
  store i32 1, ptr %8, align 4
  br label %78

41:                                               ; preds = %17
  %42 = load ptr, ptr %4, align 8, !tbaa !59
  %43 = load ptr, ptr %5, align 8, !tbaa !7
  %44 = getelementptr inbounds nuw %struct.ltlNode_t, ptr %43, i32 0, i32 3
  %45 = load ptr, ptr %44, align 8, !tbaa !16
  %46 = call ptr @buildLogicFromLTLNode(ptr noundef %42, ptr noundef %45)
  store ptr %46, ptr %6, align 8, !tbaa !68
  %47 = load ptr, ptr %4, align 8, !tbaa !59
  %48 = load ptr, ptr %5, align 8, !tbaa !7
  %49 = getelementptr inbounds nuw %struct.ltlNode_t, ptr %48, i32 0, i32 4
  %50 = load ptr, ptr %49, align 8, !tbaa !17
  %51 = call ptr @buildLogicFromLTLNode(ptr noundef %47, ptr noundef %50)
  store ptr %51, ptr %7, align 8, !tbaa !68
  %52 = load ptr, ptr %4, align 8, !tbaa !59
  %53 = load ptr, ptr %6, align 8, !tbaa !68
  %54 = load ptr, ptr %7, align 8, !tbaa !68
  %55 = call ptr @Aig_Or(ptr noundef %52, ptr noundef %53, ptr noundef %54)
  %56 = load ptr, ptr %5, align 8, !tbaa !7
  %57 = getelementptr inbounds nuw %struct.ltlNode_t, ptr %56, i32 0, i32 2
  store ptr %55, ptr %57, align 8, !tbaa !14
  %58 = load ptr, ptr %5, align 8, !tbaa !7
  %59 = getelementptr inbounds nuw %struct.ltlNode_t, ptr %58, i32 0, i32 2
  %60 = load ptr, ptr %59, align 8, !tbaa !14
  store ptr %60, ptr %3, align 8
  store i32 1, ptr %8, align 4
  br label %78

61:                                               ; preds = %17
  %62 = load ptr, ptr %4, align 8, !tbaa !59
  %63 = load ptr, ptr %5, align 8, !tbaa !7
  %64 = getelementptr inbounds nuw %struct.ltlNode_t, ptr %63, i32 0, i32 3
  %65 = load ptr, ptr %64, align 8, !tbaa !16
  %66 = call ptr @buildLogicFromLTLNode(ptr noundef %62, ptr noundef %65)
  store ptr %66, ptr %6, align 8, !tbaa !68
  %67 = load ptr, ptr %6, align 8, !tbaa !68
  %68 = call ptr @Aig_Not(ptr noundef %67)
  %69 = load ptr, ptr %5, align 8, !tbaa !7
  %70 = getelementptr inbounds nuw %struct.ltlNode_t, ptr %69, i32 0, i32 2
  store ptr %68, ptr %70, align 8, !tbaa !14
  %71 = load ptr, ptr %5, align 8, !tbaa !7
  %72 = getelementptr inbounds nuw %struct.ltlNode_t, ptr %71, i32 0, i32 2
  %73 = load ptr, ptr %72, align 8, !tbaa !14
  store ptr %73, ptr %3, align 8
  store i32 1, ptr %8, align 4
  br label %78

74:                                               ; preds = %17, %17, %17, %17
  %75 = call i32 (ptr, ...) @printf(ptr noundef @.str.19)
  call void @exit(i32 noundef 0) #12
  unreachable

76:                                               ; preds = %17
  %77 = call i32 (ptr, ...) @printf(ptr noundef @.str.18)
  call void @exit(i32 noundef 0) #12
  unreachable

78:                                               ; preds = %61, %41, %21, %13
  call void @llvm.lifetime.end.p0(i64 8, ptr %7) #9
  call void @llvm.lifetime.end.p0(i64 8, ptr %6) #9
  %79 = load ptr, ptr %3, align 8
  ret ptr %79
}